target datalayout = "e-m:e-p270:32:32-p271:32:32-p272:64:64-i64:64-i128:128-f80:128-n8:16:32:64-S128"
target triple = "x86_64-pc-linux-gnu"

%struct._GSList = type { ptr, ptr }

; Function Attrs: null_pointer_is_valid sspstrong uwtable
define void @wtap_free_extensions_list(ptr noundef %0) #0 {
  %2 = alloca ptr, align 8
  %3 = alloca ptr, align 8
  store ptr %0, ptr %2, align 8
  call void @llvm.lifetime.start.p0(i64 8, ptr %3) #12
  %4 = load ptr, ptr %2, align 8
  store ptr %4, ptr %3, align 8
  br label %5

5:                                                ; preds = %20, %1
  %6 = load ptr, ptr %3, align 8
  %7 = icmp ne ptr %6, null
  br i1 %7, label %8, label %22

8:                                                ; preds = %5
  %9 = load ptr, ptr %3, align 8
  %10 = getelementptr inbounds nuw %struct._GSList, ptr %9, i32 0, i32 0
  %11 = load ptr, ptr %10, align 8
  call void @g_free(ptr noundef %11)
  br label %12

12:                                               ; preds = %8
  %13 = load ptr, ptr %3, align 8
  %14 = icmp ne ptr %13, null
  br i1 %14, label %15, label %19

15:                                               ; preds = %12
  %16 = load ptr, ptr %3, align 8
  %17 = getelementptr inbounds nuw %struct._GSList, ptr %16, i32 0, i32 1
  %18 = load ptr, ptr %17, align 8
  br label %20

19:                                               ; preds = %12
  br label %20

20:                                               ; preds = %19, %15
  %21 = phi ptr [ %18, %15 ], [ null, %19 ]
  store ptr %21, ptr %3, align 8
  br label %5, !llvm.loop !33

22:                                               ; preds = %5
  %23 = load ptr, ptr %2, align 8
  call void @g_slist_free(ptr noundef %23)
  call void @llvm.lifetime.end.p0(i64 8, ptr %3) #12
  ret void
}