; Function Attrs: null_pointer_is_valid sspstrong uwtable
define void @wtap_free_extensions_list(ptr noundef %0) local_unnamed_addr #0 {
  %.not6 = icmp eq ptr %0, null
  br i1 %.not6, label %._crit_edge, label %.lr.ph

.lr.ph:                                           ; preds = %1, %.lr.ph
  %.07 = phi ptr [ %4, %.lr.ph ], [ %0, %1 ]
  %2 = load ptr, ptr %.07, align 8
  tail call void @g_free(ptr noundef %2)
  %3 = getelementptr inbounds nuw i8, ptr %.07, i64 8
  %4 = load ptr, ptr %3, align 8
  %.not = icmp eq ptr %4, null
  br i1 %.not, label %._crit_edge, label %.lr.ph, !llvm.loop !38

._crit_edge:                                      ; preds = %.lr.ph, %1
  tail call void @g_slist_free(ptr noundef %0)
  ret void
}